target datalayout = "e-m:e-p270:32:32-p271:32:32-p272:64:64-i64:64-i128:128-f80:128-n8:16:32:64-S128"
target triple = "x86_64-pc-linux-gnu"

%struct.PJconsts = type { ptr, ptr, ptr, ptr, ptr, ptr, ptr, ptr, ptr, ptr, ptr, ptr, i32, ptr, ptr, ptr, ptr, ptr, ptr, ptr, ptr, double, double, double, double, double, double, double, double, double, double, double, double, double, double, double, double, double, double, double, double, double, double, i32, i32, i32, i32, i32, i32, i32, i32, i32, i32, i32, ptr, ptr, ptr, ptr, ptr, ptr, double, double, double, double, double, double, double, double, double, double, double, i32, [7 x double], i32, ptr, ptr, double, double, i32, [4 x i8], %"class.std::shared_ptr", i8, double, i8, %"class.std::__cxx11::basic_string", %"class.std::__cxx11::basic_string", %"class.std::__cxx11::basic_string", i8, %"class.std::vector", i32, %"class.std::vector.3", i32, i8, i8, i8, ptr }
%"class.std::shared_ptr" = type { %"class.std::__shared_ptr" }
%"class.std::__shared_ptr" = type { ptr, %"class.std::__shared_count" }
%"class.std::__shared_count" = type { ptr }
%"class.std::__cxx11::basic_string" = type { %"struct.std::__cxx11::basic_string<char>::_Alloc_hider", i64, %union.anon }
%"struct.std::__cxx11::basic_string<char>::_Alloc_hider" = type { ptr }
%union.anon = type { i64, [8 x i8] }
%"class.std::vector" = type { %"struct.std::_Vector_base" }
%"struct.std::_Vector_base" = type { %"struct.std::_Vector_base<osgeo::proj::operation::GridDescription, std::allocator<osgeo::proj::operation::GridDescription>>::_Vector_impl" }
%"struct.std::_Vector_base<osgeo::proj::operation::GridDescription, std::allocator<osgeo::proj::operation::GridDescription>>::_Vector_impl" = type { %"struct.std::_Vector_base<osgeo::proj::operation::GridDescription, std::allocator<osgeo::proj::operation::GridDescription>>::_Vector_impl_data" }
%"struct.std::_Vector_base<osgeo::proj::operation::GridDescription, std::allocator<osgeo::proj::operation::GridDescription>>::_Vector_impl_data" = type { ptr, ptr, ptr }
%"class.std::vector.3" = type { %"struct.std::_Vector_base.4" }
%"struct.std::_Vector_base.4" = type { %"struct.std::_Vector_base<PJCoordOperation, std::allocator<PJCoordOperation>>::_Vector_impl" }
%"struct.std::_Vector_base<PJCoordOperation, std::allocator<PJCoordOperation>>::_Vector_impl" = type { %"struct.std::_Vector_base<PJCoordOperation, std::allocator<PJCoordOperation>>::_Vector_impl_data" }
%"struct.std::_Vector_base<PJCoordOperation, std::allocator<PJCoordOperation>>::_Vector_impl_data" = type { ptr, ptr, ptr }
%"struct.(anonymous namespace)::pj_laea_data" = type { double, double, double, double, double, double, double, double, ptr, i32 }
%struct.PJ_LP = type { double, double }
%struct.PJ_XY = type { double, double }

; Function Attrs: mustprogress uwtable
define internal { double, double } @_ZL14laea_s_inverse5PJ_XYP8PJconsts(double %0, double %1, ptr noundef %2) #0 {
  %4 = alloca %struct.PJ_LP, align 8
  %5 = alloca %struct.PJ_XY, align 8
  %6 = alloca ptr, align 8
  %7 = alloca ptr, align 8
  %8 = alloca double, align 8
  %9 = alloca double, align 8
  %10 = alloca double, align 8
  %11 = alloca i32, align 4
  %12 = getelementptr inbounds nuw { double, double }, ptr %5, i32 0, i32 0
  store double %0, ptr %12, align 8
  %13 = getelementptr inbounds nuw { double, double }, ptr %5, i32 0, i32 1
  store double %1, ptr %13, align 8
  store ptr %2, ptr %6, align 8, !tbaa !3
  call void @llvm.memset.p0.i64(ptr align 8 %4, i8 0, i64 16, i1 false)
  call void @llvm.lifetime.start.p0(i64 8, ptr %7) #7
  %14 = load ptr, ptr %6, align 8, !tbaa !3
  %15 = getelementptr inbounds nuw %struct.PJconsts, ptr %14, i32 0, i32 11
  %16 = load ptr, ptr %15, align 8, !tbaa !43
  store ptr %16, ptr %7, align 8, !tbaa !41
  call void @llvm.lifetime.start.p0(i64 8, ptr %8) #7
  store double 0.000000e+00, ptr %8, align 8, !tbaa !46
  call void @llvm.lifetime.start.p0(i64 8, ptr %9) #7
  call void @llvm.lifetime.start.p0(i64 8, ptr %10) #7
  store double 0.000000e+00, ptr %10, align 8, !tbaa !46
  %17 = getelementptr inbounds nuw %struct.PJ_XY, ptr %5, i32 0, i32 0
  %18 = load double, ptr %17, align 8, !tbaa !66
  %19 = getelementptr inbounds nuw %struct.PJ_XY, ptr %5, i32 0, i32 1
  %20 = load double, ptr %19, align 8, !tbaa !68
  %21 = call double @hypot(double noundef %18, double noundef %20) #7, !tbaa !52
  store double %21, ptr %9, align 8, !tbaa !46
  %22 = load double, ptr %9, align 8, !tbaa !46
  %23 = fmul double %22, 5.000000e-01
  %24 = getelementptr inbounds nuw %struct.PJ_LP, ptr %4, i32 0, i32 1
  store double %23, ptr %24, align 8, !tbaa !71
  %25 = fcmp ogt double %23, 1.000000e+00
  br i1 %25, label %26, label %29

26:                                               ; preds = %3
  %27 = load ptr, ptr %6, align 8, !tbaa !3
  %28 = call i32 @proj_errno_set(ptr noundef %27, i32 noundef 2050)
  store i32 1, ptr %11, align 4
  br label %164

29:                                               ; preds = %3
  %30 = getelementptr inbounds nuw %struct.PJ_LP, ptr %4, i32 0, i32 1
  %31 = load double, ptr %30, align 8, !tbaa !71
  %32 = call double @asin(double noundef %31) #7, !tbaa !52
  %33 = fmul double 2.000000e+00, %32
  %34 = getelementptr inbounds nuw %struct.PJ_LP, ptr %4, i32 0, i32 1
  store double %33, ptr %34, align 8, !tbaa !71
  %35 = load ptr, ptr %7, align 8, !tbaa !41
  %36 = getelementptr inbounds nuw %"struct.(anonymous namespace)::pj_laea_data", ptr %35, i32 0, i32 9
  %37 = load i32, ptr %36, align 8, !tbaa !47
  %38 = icmp eq i32 %37, 3
  br i1 %38, label %44, label %39

39:                                               ; preds = %29
  %40 = load ptr, ptr %7, align 8, !tbaa !41
  %41 = getelementptr inbounds nuw %"struct.(anonymous namespace)::pj_laea_data", ptr %40, i32 0, i32 9
  %42 = load i32, ptr %41, align 8, !tbaa !47
  %43 = icmp eq i32 %42, 2
  br i1 %43, label %44, label %51

44:                                               ; preds = %39, %29
  %45 = getelementptr inbounds nuw %struct.PJ_LP, ptr %4, i32 0, i32 1
  %46 = load double, ptr %45, align 8, !tbaa !71
  %47 = call double @sin(double noundef %46) #7, !tbaa !52
  store double %47, ptr %10, align 8, !tbaa !46
  %48 = getelementptr inbounds nuw %struct.PJ_LP, ptr %4, i32 0, i32 1
  %49 = load double, ptr %48, align 8, !tbaa !71
  %50 = call double @cos(double noundef %49) #7, !tbaa !52
  store double %50, ptr %8, align 8, !tbaa !46
  br label %51

51:                                               ; preds = %44, %39
  %52 = load ptr, ptr %7, align 8, !tbaa !41
  %53 = getelementptr inbounds nuw %"struct.(anonymous namespace)::pj_laea_data", ptr %52, i32 0, i32 9
  %54 = load i32, ptr %53, align 8, !tbaa !47
  switch i32 %54, label %140 [
    i32 2, label %55
    i32 3, label %79
    i32 0, label %127
    i32 1, label %136
  ]

55:                                               ; preds = %51
  %56 = load double, ptr %9, align 8, !tbaa !46
  %57 = call double @llvm.fabs.f64(double %56)
  %58 = fcmp ole double %57, 1.000000e-10
  br i1 %58, label %59, label %60

59:                                               ; preds = %55
  br label %68

60:                                               ; preds = %55
  %61 = getelementptr inbounds nuw %struct.PJ_XY, ptr %5, i32 0, i32 1
  %62 = load double, ptr %61, align 8, !tbaa !68
  %63 = load double, ptr %10, align 8, !tbaa !46
  %64 = fmul double %62, %63
  %65 = load double, ptr %9, align 8, !tbaa !46
  %66 = fdiv double %64, %65
  %67 = call double @asin(double noundef %66) #7, !tbaa !52
  br label %68

68:                                               ; preds = %60, %59
  %69 = phi double [ 0.000000e+00, %59 ], [ %67, %60 ]
  %70 = getelementptr inbounds nuw %struct.PJ_LP, ptr %4, i32 0, i32 1
  store double %69, ptr %70, align 8, !tbaa !71
  %71 = load double, ptr %10, align 8, !tbaa !46
  %72 = getelementptr inbounds nuw %struct.PJ_XY, ptr %5, i32 0, i32 0
  %73 = load double, ptr %72, align 8, !tbaa !66
  %74 = fmul double %73, %71
  store double %74, ptr %72, align 8, !tbaa !66
  %75 = load double, ptr %8, align 8, !tbaa !46
  %76 = load double, ptr %9, align 8, !tbaa !46
  %77 = fmul double %75, %76
  %78 = getelementptr inbounds nuw %struct.PJ_XY, ptr %5, i32 0, i32 1
  store double %77, ptr %78, align 8, !tbaa !68
  br label %140

79:                                               ; preds = %51
  %80 = load double, ptr %9, align 8, !tbaa !46
  %81 = call double @llvm.fabs.f64(double %80)
  %82 = fcmp ole double %81, 1.000000e-10
  br i1 %82, label %83, label %87

83:                                               ; preds = %79
  %84 = load ptr, ptr %6, align 8, !tbaa !3
  %85 = getelementptr inbounds nuw %struct.PJconsts, ptr %84, i32 0, i32 61
  %86 = load double, ptr %85, align 8, !tbaa !45
  br label %104

87:                                               ; preds = %79
  %88 = load double, ptr %8, align 8, !tbaa !46
  %89 = load ptr, ptr %7, align 8, !tbaa !41
  %90 = getelementptr inbounds nuw %"struct.(anonymous namespace)::pj_laea_data", ptr %89, i32 0, i32 0
  %91 = load double, ptr %90, align 8, !tbaa !62
  %92 = getelementptr inbounds nuw %struct.PJ_XY, ptr %5, i32 0, i32 1
  %93 = load double, ptr %92, align 8, !tbaa !68
  %94 = load double, ptr %10, align 8, !tbaa !46
  %95 = fmul double %93, %94
  %96 = load ptr, ptr %7, align 8, !tbaa !41
  %97 = getelementptr inbounds nuw %"struct.(anonymous namespace)::pj_laea_data", ptr %96, i32 0, i32 1
  %98 = load double, ptr %97, align 8, !tbaa !63
  %99 = fmul double %95, %98
  %100 = load double, ptr %9, align 8, !tbaa !46
  %101 = fdiv double %99, %100
  %102 = call double @llvm.fmuladd.f64(double %88, double %91, double %101)
  %103 = call double @asin(double noundef %102) #7, !tbaa !52
  br label %104

104:                                              ; preds = %87, %83
  %105 = phi double [ %86, %83 ], [ %103, %87 ]
  %106 = getelementptr inbounds nuw %struct.PJ_LP, ptr %4, i32 0, i32 1
  store double %105, ptr %106, align 8, !tbaa !71
  %107 = load double, ptr %10, align 8, !tbaa !46
  %108 = load ptr, ptr %7, align 8, !tbaa !41
  %109 = getelementptr inbounds nuw %"struct.(anonymous namespace)::pj_laea_data", ptr %108, i32 0, i32 1
  %110 = load double, ptr %109, align 8, !tbaa !63
  %111 = fmul double %107, %110
  %112 = getelementptr inbounds nuw %struct.PJ_XY, ptr %5, i32 0, i32 0
  %113 = load double, ptr %112, align 8, !tbaa !66
  %114 = fmul double %113, %111
  store double %114, ptr %112, align 8, !tbaa !66
  %115 = load double, ptr %8, align 8, !tbaa !46
  %116 = getelementptr inbounds nuw %struct.PJ_LP, ptr %4, i32 0, i32 1
  %117 = load double, ptr %116, align 8, !tbaa !71
  %118 = call double @sin(double noundef %117) #7, !tbaa !52
  %119 = load ptr, ptr %7, align 8, !tbaa !41
  %120 = getelementptr inbounds nuw %"struct.(anonymous namespace)::pj_laea_data", ptr %119, i32 0, i32 0
  %121 = load double, ptr %120, align 8, !tbaa !62
  %122 = fneg double %118
  %123 = call double @llvm.fmuladd.f64(double %122, double %121, double %115)
  %124 = load double, ptr %9, align 8, !tbaa !46
  %125 = fmul double %123, %124
  %126 = getelementptr inbounds nuw %struct.PJ_XY, ptr %5, i32 0, i32 1
  store double %125, ptr %126, align 8, !tbaa !68
  br label %140

127:                                              ; preds = %51
  %128 = getelementptr inbounds nuw %struct.PJ_XY, ptr %5, i32 0, i32 1
  %129 = load double, ptr %128, align 8, !tbaa !68
  %130 = fneg double %129
  %131 = getelementptr inbounds nuw %struct.PJ_XY, ptr %5, i32 0, i32 1
  store double %130, ptr %131, align 8, !tbaa !68
  %132 = getelementptr inbounds nuw %struct.PJ_LP, ptr %4, i32 0, i32 1
  %133 = load double, ptr %132, align 8, !tbaa !71
  %134 = fsub double 0x3FF921FB54442D18, %133
  %135 = getelementptr inbounds nuw %struct.PJ_LP, ptr %4, i32 0, i32 1
  store double %134, ptr %135, align 8, !tbaa !71
  br label %140

136:                                              ; preds = %51
  %137 = getelementptr inbounds nuw %struct.PJ_LP, ptr %4, i32 0, i32 1
  %138 = load double, ptr %137, align 8, !tbaa !71
  %139 = fsub double %138, 0x3FF921FB54442D18
  store double %139, ptr %137, align 8, !tbaa !71
  br label %140

140:                                              ; preds = %51, %136, %127, %104, %68
  %141 = getelementptr inbounds nuw %struct.PJ_XY, ptr %5, i32 0, i32 1
  %142 = load double, ptr %141, align 8, !tbaa !68
  %143 = fcmp oeq double %142, 0.000000e+00
  br i1 %143, label %144, label %155

144:                                              ; preds = %140
  %145 = load ptr, ptr %7, align 8, !tbaa !41
  %146 = getelementptr inbounds nuw %"struct.(anonymous namespace)::pj_laea_data", ptr %145, i32 0, i32 9
  %147 = load i32, ptr %146, align 8, !tbaa !47
  %148 = icmp eq i32 %147, 2
  br i1 %148, label %154, label %149

149:                                              ; preds = %144
  %150 = load ptr, ptr %7, align 8, !tbaa !41
  %151 = getelementptr inbounds nuw %"struct.(anonymous namespace)::pj_laea_data", ptr %150, i32 0, i32 9
  %152 = load i32, ptr %151, align 8, !tbaa !47
  %153 = icmp eq i32 %152, 3
  br i1 %153, label %154, label %155

154:                                              ; preds = %149, %144
  br label %161

155:                                              ; preds = %149, %140
  %156 = getelementptr inbounds nuw %struct.PJ_XY, ptr %5, i32 0, i32 0
  %157 = load double, ptr %156, align 8, !tbaa !66
  %158 = getelementptr inbounds nuw %struct.PJ_XY, ptr %5, i32 0, i32 1
  %159 = load double, ptr %158, align 8, !tbaa !68
  %160 = call double @atan2(double noundef %157, double noundef %159) #7, !tbaa !52
  br label %161

161:                                              ; preds = %155, %154
  %162 = phi double [ 0.000000e+00, %154 ], [ %160, %155 ]
  %163 = getelementptr inbounds nuw %struct.PJ_LP, ptr %4, i32 0, i32 0
  store double %162, ptr %163, align 8, !tbaa !69
  store i32 1, ptr %11, align 4
  br label %164

164:                                              ; preds = %161, %26
  call void @llvm.lifetime.end.p0(i64 8, ptr %10) #7
  call void @llvm.lifetime.end.p0(i64 8, ptr %9) #7
  call void @llvm.lifetime.end.p0(i64 8, ptr %8) #7
  call void @llvm.lifetime.end.p0(i64 8, ptr %7) #7
  %165 = load { double, double }, ptr %4, align 8
  ret { double, double } %165
}