; Function Attrs: mustprogress uwtable
define internal { double, double } @_ZL14laea_s_inverse5PJ_XYP8PJconsts(double %0, double %1, ptr noundef %2) #0 {
  %4 = getelementptr inbounds nuw i8, ptr %2, i64 88
  %5 = load ptr, ptr %4, align 8, !tbaa !40
  %6 = tail call double @hypot(double noundef %0, double noundef %1) #7, !tbaa !49
  %7 = fmul double %6, 5.000000e-01
  %8 = fcmp ogt double %7, 1.000000e+00
  br i1 %8, label %9, label %11

9:                                                ; preds = %3
  %10 = tail call i32 @proj_errno_set(ptr noundef nonnull %2, i32 noundef 2050)
  br label %64

11:                                               ; preds = %3
  %12 = tail call double @asin(double noundef %7) #7, !tbaa !49
  %13 = fmul double %12, 2.000000e+00
  %14 = getelementptr inbounds nuw i8, ptr %5, i64 72
  %15 = load i32, ptr %14, align 8, !tbaa !47
  %16 = and i32 %15, -2
  %switch = icmp ne i32 %16, 2
  br i1 %switch, label %20, label %17

17:                                               ; preds = %11
  %18 = tail call double @sin(double noundef %13) #7, !tbaa !49
  %19 = tail call double @cos(double noundef %13) #7, !tbaa !49
  br label %20

20:                                               ; preds = %11, %17
  %.040 = phi double [ %19, %17 ], [ 0.000000e+00, %11 ]
  %.0 = phi double [ %18, %17 ], [ 0.000000e+00, %11 ]
  switch i32 %15, label %61 [
    i32 2, label %21
    i32 3, label %32
    i32 0, label %56
    i32 1, label %59
  ]

21:                                               ; preds = %20
  %22 = tail call double @llvm.fabs.f64(double %6)
  %23 = fcmp ugt double %22, 1.000000e-10
  br i1 %23, label %24, label %28

24:                                               ; preds = %21
  %25 = fmul double %1, %.0
  %26 = fdiv double %25, %6
  %27 = tail call double @asin(double noundef %26) #7, !tbaa !49
  br label %28

28:                                               ; preds = %21, %24
  %29 = phi double [ %27, %24 ], [ 0.000000e+00, %21 ]
  %30 = fmul double %0, %.0
  %31 = fmul double %6, %.040
  br label %61

32:                                               ; preds = %20
  %33 = tail call double @llvm.fabs.f64(double %6)
  %34 = fcmp ugt double %33, 1.000000e-10
  %35 = getelementptr inbounds nuw i8, ptr %5, i64 8
  %36 = load double, ptr %35, align 8, !tbaa !59
  br i1 %34, label %40, label %37

37:                                               ; preds = %32
  %38 = getelementptr inbounds nuw i8, ptr %2, i64 448
  %39 = load double, ptr %38, align 8, !tbaa !42
  %.pre46 = load double, ptr %5, align 8, !tbaa !58
  br label %47

40:                                               ; preds = %32
  %41 = load double, ptr %5, align 8, !tbaa !58
  %42 = fmul double %1, %.0
  %43 = fmul double %42, %36
  %44 = fdiv double %43, %6
  %45 = tail call double @llvm.fmuladd.f64(double %.040, double %41, double %44)
  %46 = tail call double @asin(double noundef %45) #7, !tbaa !49
  br label %47

47:                                               ; preds = %40, %37
  %48 = phi double [ %.pre46, %37 ], [ %41, %40 ]
  %49 = phi double [ %39, %37 ], [ %46, %40 ]
  %50 = fmul double %.0, %36
  %51 = fmul double %0, %50
  %52 = tail call double @sin(double noundef %49) #7, !tbaa !49
  %53 = fneg double %52
  %54 = tail call double @llvm.fmuladd.f64(double %53, double %48, double %.040)
  %55 = fmul double %6, %54
  br label %61

56:                                               ; preds = %20
  %57 = fneg double %1
  %58 = fsub double 0x3FF921FB54442D18, %13
  br label %.thread

59:                                               ; preds = %20
  %60 = fadd double %13, 0xBFF921FB54442D18
  br label %.thread

61:                                               ; preds = %47, %28, %20
  %.sroa.0.0 = phi double [ %0, %20 ], [ %51, %47 ], [ %30, %28 ]
  %.sroa.7.0 = phi double [ %1, %20 ], [ %55, %47 ], [ %31, %28 ]
  %.sroa.3.1 = phi double [ %13, %20 ], [ %49, %47 ], [ %29, %28 ]
  %62 = fcmp une double %.sroa.7.0, 0.000000e+00
  %brmerge = or i1 %switch, %62
  br i1 %brmerge, label %.thread, label %64

.thread:                                          ; preds = %56, %59, %61
  %.sroa.3.153 = phi double [ %.sroa.3.1, %61 ], [ %58, %56 ], [ %60, %59 ]
  %.sroa.7.052 = phi double [ %.sroa.7.0, %61 ], [ %57, %56 ], [ %1, %59 ]
  %.sroa.0.051 = phi double [ %.sroa.0.0, %61 ], [ %0, %56 ], [ %0, %59 ]
  %63 = tail call double @atan2(double noundef %.sroa.0.051, double noundef %.sroa.7.052) #7, !tbaa !49
  br label %64

64:                                               ; preds = %61, %.thread, %9
  %.sroa.3.0 = phi double [ %7, %9 ], [ %.sroa.3.153, %.thread ], [ %.sroa.3.1, %61 ]
  %.sroa.034.0 = phi double [ 0.000000e+00, %9 ], [ %63, %.thread ], [ 0.000000e+00, %61 ]
  %.fca.0.insert = insertvalue { double, double } poison, double %.sroa.034.0, 0
  %.fca.1.insert = insertvalue { double, double } %.fca.0.insert, double %.sroa.3.0, 1
  ret { double, double } %.fca.1.insert
}